; Function Attrs: mustprogress nounwind uwtable
define hidden void @_ZN9XUnmapper12stop_serviceEv(ptr noundef nonnull align 8 dereferenceable(1050) %0) unnamed_addr #0 align 2 {
_ZN7XLockerI14XConditionLockED2Ev.exit:
  %1 = getelementptr inbounds i8, ptr %0, i64 928
  %2 = tail call i32 @pthread_mutex_lock(ptr noundef nonnull %1) #9
  %3 = getelementptr inbounds i8, ptr %0, i64 1049
  store i8 1, ptr %3, align 1
  %4 = getelementptr inbounds i8, ptr %0, i64 968
  %5 = tail call i32 @pthread_cond_broadcast(ptr noundef nonnull %4) #9
  %6 = tail call i32 @pthread_mutex_unlock(ptr noundef nonnull %1) #9
  ret void
}